; ModuleID = 'source-C-CXX/10/869.c'
source_filename = "source-C-CXX/10/869.c"
target datalayout = "e-m:e-p270:32:32-p271:32:32-p272:64:64-i64:64-f80:128-n8:16:32:64-S128"
target triple = "x86_64-pc-linux-gnu"

@.str = private unnamed_addr constant [7 x i8] c"%d%d%d\00", align 1
@.str.1 = private unnamed_addr constant [4 x i8] c"%d\0A\00", align 1
@switch.table.main = private unnamed_addr constant [11 x i32] [i32 31, i32 60, i32 91, i32 121, i32 152, i32 182, i32 213, i32 244, i32 274, i32 305, i32 335], align 4
@switch.table.main.2 = private unnamed_addr constant [11 x i32] [i32 31, i32 59, i32 90, i32 120, i32 151, i32 181, i32 212, i32 243, i32 273, i32 304, i32 334], align 4

; Function Attrs: mustprogress nofree norecurse nosync nounwind readnone sspstrong uwtable willreturn
define dso_local i32 @leap_year(i32 %0) local_unnamed_addr #0 {
  %2 = srem i32 %0, 400
  %3 = icmp eq i32 %2, 0
  br i1 %3, label %11, label %4

4:                                                ; preds = %1
  %5 = and i32 %0, 3
  %6 = icmp eq i32 %5, 0
  %7 = srem i32 %0, 100
  %8 = icmp ne i32 %7, 0
  %9 = and i1 %6, %8
  %10 = zext i1 %9 to i32
  br label %11

11:                                               ; preds = %4, %1
  %12 = phi i32 [ 1, %1 ], [ %10, %4 ]
  ret i32 %12
}

; Function Attrs: nofree nounwind sspstrong uwtable
define dso_local i32 @main() local_unnamed_addr #1 {
  %1 = alloca i32, align 4
  %2 = alloca i32, align 4
  %3 = alloca i32, align 4
  %4 = bitcast i32* %1 to i8*
  call void @llvm.lifetime.start.p0i8(i64 4, i8* nonnull %4) #4
  %5 = bitcast i32* %2 to i8*
  call void @llvm.lifetime.start.p0i8(i64 4, i8* nonnull %5) #4
  %6 = bitcast i32* %3 to i8*
  call void @llvm.lifetime.start.p0i8(i64 4, i8* nonnull %6) #4
  %7 = call i32 (i8*, ...) @__isoc99_scanf(i8* getelementptr inbounds ([7 x i8], [7 x i8]* @.str, i64 0, i64 0), i32* nonnull %1, i32* nonnull %2, i32* nonnull %3)
  %8 = load i32, i32* %1, align 4, !tbaa !5
  %9 = srem i32 %8, 400
  %10 = icmp eq i32 %9, 0
  br i1 %10, label %17, label %11

11:                                               ; preds = %0
  %12 = and i32 %8, 3
  %13 = icmp ne i32 %12, 0
  %14 = srem i32 %8, 100
  %15 = icmp eq i32 %14, 0
  %16 = or i1 %13, %15
  br i1 %16, label %29, label %17

17:                                               ; preds = %0, %11
  %18 = load i32, i32* %2, align 4, !tbaa !5
  %19 = add i32 %18, -2
  %20 = icmp ult i32 %19, 11
  br i1 %20, label %21, label %25

21:                                               ; preds = %17
  %22 = sext i32 %19 to i64
  %23 = getelementptr inbounds [11 x i32], [11 x i32]* @switch.table.main, i64 0, i64 %22
  %24 = load i32, i32* %23, align 4
  br label %25

25:                                               ; preds = %21, %17
  %26 = phi i32 [ 0, %17 ], [ %24, %21 ]
  %27 = load i32, i32* %3, align 4, !tbaa !5
  %28 = add nsw i32 %27, %26
  br label %41

29:                                               ; preds = %11
  %30 = load i32, i32* %2, align 4, !tbaa !5
  %31 = add i32 %30, -2
  %32 = icmp ult i32 %31, 11
  br i1 %32, label %33, label %37

33:                                               ; preds = %29
  %34 = sext i32 %31 to i64
  %35 = getelementptr inbounds [11 x i32], [11 x i32]* @switch.table.main.2, i64 0, i64 %34
  %36 = load i32, i32* %35, align 4
  br label %37

37:                                               ; preds = %33, %29
  %38 = phi i32 [ 0, %29 ], [ %36, %33 ]
  %39 = load i32, i32* %3, align 4, !tbaa !5
  %40 = add nsw i32 %39, %38
  br label %41

41:                                               ; preds = %37, %25
  %42 = phi i32 [ %28, %25 ], [ %40, %37 ]
  %43 = call i32 (i8*, ...) @printf(i8* nonnull dereferenceable(1) getelementptr inbounds ([4 x i8], [4 x i8]* @.str.1, i64 0, i64 0), i32 %42)
  call void @llvm.lifetime.end.p0i8(i64 4, i8* nonnull %6) #4
  call void @llvm.lifetime.end.p0i8(i64 4, i8* nonnull %5) #4
  call void @llvm.lifetime.end.p0i8(i64 4, i8* nonnull %4) #4
  ret i32 0
}

; Function Attrs: argmemonly mustprogress nofree nosync nounwind willreturn
declare void @llvm.lifetime.start.p0i8(i64 immarg, i8* nocapture) #2

; Function Attrs: nofree nounwind
declare noundef i32 @__isoc99_scanf(i8* nocapture noundef readonly, ...) local_unnamed_addr #3

; Function Attrs: nofree nounwind
declare noundef i32 @printf(i8* nocapture noundef readonly, ...) local_unnamed_addr #3

; Function Attrs: argmemonly mustprogress nofree nosync nounwind willreturn
declare void @llvm.lifetime.end.p0i8(i64 immarg, i8* nocapture) #2


!llvm.module.flags = !{!0, !1, !2, !3}
!llvm.ident = !{!4}

!0 = !{i32 1, !"wchar_size", i32 4}
!1 = !{i32 7, !"PIC Level", i32 2}
!2 = !{i32 7, !"PIE Level", i32 2}
!3 = !{i32 7, !"uwtable", i32 1}
!4 = !{!"clang version 13.0.0"}
!5 = !{!6, !6, i64 0}
!6 = !{!"int", !7, i64 0}
!7 = !{!"omnipotent char", !8, i64 0}
!8 = !{!"Simple C/C++ TBAA"}
